target datalayout = "e-m:e-p270:32:32-p271:32:32-p272:64:64-i64:64-i128:128-f80:128-n8:16:32:64-S128"
target triple = "x86_64-pc-linux-gnu"

%struct.auth_credential_t = type { i32, i32, ptr, i8, %struct.in_addr, i8, i32, i32, ptr, i32 }
%struct.in_addr = type { i32 }

@.str.8 = private unnamed_addr constant [13 x i8] c"auth_munge.c\00", align 1
@__func__.auth_p_get_data = private unnamed_addr constant [16 x i8] c"auth_p_get_data\00", align 1

; Function Attrs: nounwind uwtable
define dso_local i32 @auth_p_get_data(ptr noundef %0, ptr noundef %1, ptr noundef %2) #0 {
  %4 = alloca i32, align 4
  %5 = alloca ptr, align 8
  %6 = alloca ptr, align 8
  %7 = alloca ptr, align 8
  store ptr %0, ptr %5, align 8
  store ptr %1, ptr %6, align 8
  store ptr %2, ptr %7, align 8
  %8 = load ptr, ptr %5, align 8
  %9 = icmp ne ptr %8, null
  br i1 %9, label %10, label %15

10:                                               ; preds = %3
  %11 = load ptr, ptr %5, align 8
  %12 = getelementptr inbounds nuw %struct.auth_credential_t, ptr %11, i32 0, i32 5
  %13 = load i8, ptr %12, align 8, !range !8, !noundef !9
  %14 = trunc i8 %13 to i1
  br i1 %14, label %17, label %15

15:                                               ; preds = %10, %3
  %16 = call ptr @__errno_location() #11
  store i32 6004, ptr %16, align 4
  store i32 -1, ptr %4, align 4
  br label %51

17:                                               ; preds = %10
  %18 = load ptr, ptr %5, align 8
  %19 = getelementptr inbounds nuw %struct.auth_credential_t, ptr %18, i32 0, i32 8
  %20 = load ptr, ptr %19, align 8
  %21 = icmp ne ptr %20, null
  br i1 %21, label %22, label %47

22:                                               ; preds = %17
  %23 = load ptr, ptr %5, align 8
  %24 = getelementptr inbounds nuw %struct.auth_credential_t, ptr %23, i32 0, i32 9
  %25 = load i32, ptr %24, align 8
  %26 = icmp ne i32 %25, 0
  br i1 %26, label %27, label %47

27:                                               ; preds = %22
  %28 = load ptr, ptr %5, align 8
  %29 = getelementptr inbounds nuw %struct.auth_credential_t, ptr %28, i32 0, i32 9
  %30 = load i32, ptr %29, align 8
  %31 = sext i32 %30 to i64
  %32 = call ptr @slurm_xcalloc(i64 noundef 1, i64 noundef %31, i1 noundef zeroext true, i1 noundef zeroext false, ptr noundef @.str.8, i32 noundef 418, ptr noundef @__func__.auth_p_get_data)
  %33 = load ptr, ptr %6, align 8
  store ptr %32, ptr %33, align 8
  %34 = load ptr, ptr %6, align 8
  %35 = load ptr, ptr %34, align 8
  %36 = load ptr, ptr %5, align 8
  %37 = getelementptr inbounds nuw %struct.auth_credential_t, ptr %36, i32 0, i32 8
  %38 = load ptr, ptr %37, align 8
  %39 = load ptr, ptr %5, align 8
  %40 = getelementptr inbounds nuw %struct.auth_credential_t, ptr %39, i32 0, i32 9
  %41 = load i32, ptr %40, align 8
  %42 = sext i32 %41 to i64
  call void @llvm.memcpy.p0.p0.i64(ptr align 1 %35, ptr align 1 %38, i64 %42, i1 false)
  %43 = load ptr, ptr %5, align 8
  %44 = getelementptr inbounds nuw %struct.auth_credential_t, ptr %43, i32 0, i32 9
  %45 = load i32, ptr %44, align 8
  %46 = load ptr, ptr %7, align 8
  store i32 %45, ptr %46, align 4
  br label %50

47:                                               ; preds = %22, %17
  %48 = load ptr, ptr %6, align 8
  store ptr null, ptr %48, align 8
  %49 = load ptr, ptr %7, align 8
  store i32 0, ptr %49, align 4
  br label %50

50:                                               ; preds = %47, %27
  store i32 0, ptr %4, align 4
  br label %51

51:                                               ; preds = %50, %15
  %52 = load i32, ptr %4, align 4
  ret i32 %52
}