; Function Attrs: nounwind uwtable
define dso_local range(i32 -1, 1) i32 @auth_p_get_data(ptr noundef readonly captures(address_is_null) %0, ptr noundef writeonly captures(none) %1, ptr noundef writeonly captures(none) %2) local_unnamed_addr #0 {
  %.not = icmp eq ptr %0, null
  br i1 %.not, label %8, label %4

4:                                                ; preds = %3
  %5 = getelementptr inbounds nuw i8, ptr %0, i64 24
  %6 = load i8, ptr %5, align 8, !range !8, !noundef !9
  %7 = trunc nuw i8 %6 to i1
  br i1 %7, label %10, label %8

8:                                                ; preds = %4, %3
  %9 = tail call ptr @__errno_location() #14
  store i32 6004, ptr %9, align 4
  br label %25

10:                                               ; preds = %4
  %11 = getelementptr inbounds nuw i8, ptr %0, i64 40
  %12 = load ptr, ptr %11, align 8
  %.not15 = icmp eq ptr %12, null
  br i1 %.not15, label %23, label %13

13:                                               ; preds = %10
  %14 = getelementptr inbounds nuw i8, ptr %0, i64 48
  %15 = load i32, ptr %14, align 8
  %.not16 = icmp eq i32 %15, 0
  br i1 %.not16, label %23, label %16

16:                                               ; preds = %13
  %17 = sext i32 %15 to i64
  %18 = tail call ptr @slurm_xcalloc(i64 noundef 1, i64 noundef %17, i1 noundef zeroext true, i1 noundef zeroext false, ptr noundef nonnull @.str.8, i32 noundef 418, ptr noundef nonnull @__func__.auth_p_get_data) #13
  store ptr %18, ptr %1, align 8
  %19 = load ptr, ptr %11, align 8
  %20 = load i32, ptr %14, align 8
  %21 = sext i32 %20 to i64
  tail call void @llvm.memcpy.p0.p0.i64(ptr align 1 %18, ptr align 1 %19, i64 %21, i1 false)
  %22 = load i32, ptr %14, align 8
  br label %24

23:                                               ; preds = %13, %10
  store ptr null, ptr %1, align 8
  br label %24

24:                                               ; preds = %23, %16
  %storemerge = phi i32 [ 0, %23 ], [ %22, %16 ]
  store i32 %storemerge, ptr %2, align 4
  br label %25

25:                                               ; preds = %24, %8
  %.0 = phi i32 [ 0, %24 ], [ -1, %8 ]
  ret i32 %.0
}